target datalayout = "e-m:e-p270:32:32-p271:32:32-p272:64:64-i64:64-i128:128-f80:128-n8:16:32:64-S128"
target triple = "x86_64-pc-linux-gnu"

%struct.latencyTimeSeries = type { i32, i32, [160 x %struct.latencySample] }
%struct.latencySample = type { i32, i32 }
%struct.sequence = type { i32, i32, ptr, double, double }

@.str.23 = private unnamed_addr constant [2 x i8] c"\0A\00", align 1
@.str.45 = private unnamed_addr constant [4 x i8] c"%ds\00", align 1
@.str.46 = private unnamed_addr constant [4 x i8] c"%dm\00", align 1
@.str.47 = private unnamed_addr constant [4 x i8] c"%dh\00", align 1
@.str.48 = private unnamed_addr constant [4 x i8] c"%dd\00", align 1
@.str.49 = private unnamed_addr constant [53 x i8] c"%s - high %lu ms, low %lu ms (all time high %lu ms)\0A\00", align 1
@.str.50 = private unnamed_addr constant [2 x i8] c"-\00", align 1

; Function Attrs: nounwind uwtable
define dso_local ptr @latencyCommandGenSparkeline(ptr noundef %0, ptr noundef %1) #0 {
  %3 = alloca ptr, align 8
  %4 = alloca ptr, align 8
  %5 = alloca i32, align 4
  %6 = alloca ptr, align 8
  %7 = alloca ptr, align 8
  %8 = alloca i32, align 4
  %9 = alloca i32, align 4
  %10 = alloca i32, align 4
  %11 = alloca i32, align 4
  %12 = alloca [64 x i8], align 16
  %13 = alloca i32, align 4
  store ptr %0, ptr %3, align 8, !tbaa !40
  store ptr %1, ptr %4, align 8, !tbaa !42
  call void @llvm.lifetime.start.p0(i64 4, ptr %5) #10
  call void @llvm.lifetime.start.p0(i64 8, ptr %6) #10
  %14 = call ptr @createSparklineSequence()
  store ptr %14, ptr %6, align 8, !tbaa !120
  call void @llvm.lifetime.start.p0(i64 8, ptr %7) #10
  %15 = call ptr @sdsempty()
  store ptr %15, ptr %7, align 8, !tbaa !40
  call void @llvm.lifetime.start.p0(i64 4, ptr %8) #10
  store i32 0, ptr %8, align 4, !tbaa !48
  call void @llvm.lifetime.start.p0(i64 4, ptr %9) #10
  store i32 0, ptr %9, align 4, !tbaa !48
  store i32 0, ptr %5, align 4, !tbaa !48
  br label %16

16:                                               ; preds = %140, %2
  %17 = load i32, ptr %5, align 4, !tbaa !48
  %18 = icmp slt i32 %17, 160
  br i1 %18, label %19, label %143

19:                                               ; preds = %16
  call void @llvm.lifetime.start.p0(i64 4, ptr %10) #10
  %20 = load ptr, ptr %4, align 8, !tbaa !42
  %21 = getelementptr inbounds nuw %struct.latencyTimeSeries, ptr %20, i32 0, i32 0
  %22 = load i32, ptr %21, align 4, !tbaa !45
  %23 = load i32, ptr %5, align 4, !tbaa !48
  %24 = add nsw i32 %22, %23
  %25 = srem i32 %24, 160
  store i32 %25, ptr %10, align 4, !tbaa !48
  call void @llvm.lifetime.start.p0(i64 4, ptr %11) #10
  call void @llvm.lifetime.start.p0(i64 64, ptr %12) #10
  %26 = load ptr, ptr %4, align 8, !tbaa !42
  %27 = getelementptr inbounds nuw %struct.latencyTimeSeries, ptr %26, i32 0, i32 2
  %28 = load i32, ptr %10, align 4, !tbaa !48
  %29 = sext i32 %28 to i64
  %30 = getelementptr inbounds [160 x %struct.latencySample], ptr %27, i64 0, i64 %29
  %31 = getelementptr inbounds nuw %struct.latencySample, ptr %30, i32 0, i32 0
  %32 = load i32, ptr %31, align 4, !tbaa !49
  %33 = icmp eq i32 %32, 0
  br i1 %33, label %34, label %35

34:                                               ; preds = %19
  store i32 4, ptr %13, align 4
  br label %137

35:                                               ; preds = %19
  %36 = load ptr, ptr %6, align 8, !tbaa !120
  %37 = getelementptr inbounds nuw %struct.sequence, ptr %36, i32 0, i32 0
  %38 = load i32, ptr %37, align 8, !tbaa !122
  %39 = icmp eq i32 %38, 0
  br i1 %39, label %40, label %48

40:                                               ; preds = %35
  %41 = load ptr, ptr %4, align 8, !tbaa !42
  %42 = getelementptr inbounds nuw %struct.latencyTimeSeries, ptr %41, i32 0, i32 2
  %43 = load i32, ptr %10, align 4, !tbaa !48
  %44 = sext i32 %43 to i64
  %45 = getelementptr inbounds [160 x %struct.latencySample], ptr %42, i64 0, i64 %44
  %46 = getelementptr inbounds nuw %struct.latencySample, ptr %45, i32 0, i32 1
  %47 = load i32, ptr %46, align 4, !tbaa !51
  store i32 %47, ptr %9, align 4, !tbaa !48
  store i32 %47, ptr %8, align 4, !tbaa !48
  br label %85

48:                                               ; preds = %35
  %49 = load ptr, ptr %4, align 8, !tbaa !42
  %50 = getelementptr inbounds nuw %struct.latencyTimeSeries, ptr %49, i32 0, i32 2
  %51 = load i32, ptr %10, align 4, !tbaa !48
  %52 = sext i32 %51 to i64
  %53 = getelementptr inbounds [160 x %struct.latencySample], ptr %50, i64 0, i64 %52
  %54 = getelementptr inbounds nuw %struct.latencySample, ptr %53, i32 0, i32 1
  %55 = load i32, ptr %54, align 4, !tbaa !51
  %56 = load i32, ptr %9, align 4, !tbaa !48
  %57 = icmp ugt i32 %55, %56
  br i1 %57, label %58, label %66

58:                                               ; preds = %48
  %59 = load ptr, ptr %4, align 8, !tbaa !42
  %60 = getelementptr inbounds nuw %struct.latencyTimeSeries, ptr %59, i32 0, i32 2
  %61 = load i32, ptr %10, align 4, !tbaa !48
  %62 = sext i32 %61 to i64
  %63 = getelementptr inbounds [160 x %struct.latencySample], ptr %60, i64 0, i64 %62
  %64 = getelementptr inbounds nuw %struct.latencySample, ptr %63, i32 0, i32 1
  %65 = load i32, ptr %64, align 4, !tbaa !51
  store i32 %65, ptr %9, align 4, !tbaa !48
  br label %66

66:                                               ; preds = %58, %48
  %67 = load ptr, ptr %4, align 8, !tbaa !42
  %68 = getelementptr inbounds nuw %struct.latencyTimeSeries, ptr %67, i32 0, i32 2
  %69 = load i32, ptr %10, align 4, !tbaa !48
  %70 = sext i32 %69 to i64
  %71 = getelementptr inbounds [160 x %struct.latencySample], ptr %68, i64 0, i64 %70
  %72 = getelementptr inbounds nuw %struct.latencySample, ptr %71, i32 0, i32 1
  %73 = load i32, ptr %72, align 4, !tbaa !51
  %74 = load i32, ptr %8, align 4, !tbaa !48
  %75 = icmp ult i32 %73, %74
  br i1 %75, label %76, label %84

76:                                               ; preds = %66
  %77 = load ptr, ptr %4, align 8, !tbaa !42
  %78 = getelementptr inbounds nuw %struct.latencyTimeSeries, ptr %77, i32 0, i32 2
  %79 = load i32, ptr %10, align 4, !tbaa !48
  %80 = sext i32 %79 to i64
  %81 = getelementptr inbounds [160 x %struct.latencySample], ptr %78, i64 0, i64 %80
  %82 = getelementptr inbounds nuw %struct.latencySample, ptr %81, i32 0, i32 1
  %83 = load i32, ptr %82, align 4, !tbaa !51
  store i32 %83, ptr %8, align 4, !tbaa !48
  br label %84

84:                                               ; preds = %76, %66
  br label %85

85:                                               ; preds = %84, %40
  %86 = call i64 @time(ptr noundef null) #10
  %87 = load ptr, ptr %4, align 8, !tbaa !42
  %88 = getelementptr inbounds nuw %struct.latencyTimeSeries, ptr %87, i32 0, i32 2
  %89 = load i32, ptr %10, align 4, !tbaa !48
  %90 = sext i32 %89 to i64
  %91 = getelementptr inbounds [160 x %struct.latencySample], ptr %88, i64 0, i64 %90
  %92 = getelementptr inbounds nuw %struct.latencySample, ptr %91, i32 0, i32 0
  %93 = load i32, ptr %92, align 4, !tbaa !49
  %94 = sext i32 %93 to i64
  %95 = sub nsw i64 %86, %94
  %96 = trunc i64 %95 to i32
  store i32 %96, ptr %11, align 4, !tbaa !48
  %97 = load i32, ptr %11, align 4, !tbaa !48
  %98 = icmp slt i32 %97, 60
  br i1 %98, label %99, label %103

99:                                               ; preds = %85
  %100 = getelementptr inbounds [64 x i8], ptr %12, i64 0, i64 0
  %101 = load i32, ptr %11, align 4, !tbaa !48
  %102 = call i32 (ptr, i64, ptr, ...) @snprintf(ptr noundef %100, i64 noundef 64, ptr noundef @.str.45, i32 noundef %101) #10
  br label %126

103:                                              ; preds = %85
  %104 = load i32, ptr %11, align 4, !tbaa !48
  %105 = icmp slt i32 %104, 3600
  br i1 %105, label %106, label %111

106:                                              ; preds = %103
  %107 = getelementptr inbounds [64 x i8], ptr %12, i64 0, i64 0
  %108 = load i32, ptr %11, align 4, !tbaa !48
  %109 = sdiv i32 %108, 60
  %110 = call i32 (ptr, i64, ptr, ...) @snprintf(ptr noundef %107, i64 noundef 64, ptr noundef @.str.46, i32 noundef %109) #10
  br label %125

111:                                              ; preds = %103
  %112 = load i32, ptr %11, align 4, !tbaa !48
  %113 = icmp slt i32 %112, 86400
  br i1 %113, label %114, label %119

114:                                              ; preds = %111
  %115 = getelementptr inbounds [64 x i8], ptr %12, i64 0, i64 0
  %116 = load i32, ptr %11, align 4, !tbaa !48
  %117 = sdiv i32 %116, 3600
  %118 = call i32 (ptr, i64, ptr, ...) @snprintf(ptr noundef %115, i64 noundef 64, ptr noundef @.str.47, i32 noundef %117) #10
  br label %124

119:                                              ; preds = %111
  %120 = getelementptr inbounds [64 x i8], ptr %12, i64 0, i64 0
  %121 = load i32, ptr %11, align 4, !tbaa !48
  %122 = sdiv i32 %121, 86400
  %123 = call i32 (ptr, i64, ptr, ...) @snprintf(ptr noundef %120, i64 noundef 64, ptr noundef @.str.48, i32 noundef %122) #10
  br label %124

124:                                              ; preds = %119, %114
  br label %125

125:                                              ; preds = %124, %106
  br label %126

126:                                              ; preds = %125, %99
  %127 = load ptr, ptr %6, align 8, !tbaa !120
  %128 = load ptr, ptr %4, align 8, !tbaa !42
  %129 = getelementptr inbounds nuw %struct.latencyTimeSeries, ptr %128, i32 0, i32 2
  %130 = load i32, ptr %10, align 4, !tbaa !48
  %131 = sext i32 %130 to i64
  %132 = getelementptr inbounds [160 x %struct.latencySample], ptr %129, i64 0, i64 %131
  %133 = getelementptr inbounds nuw %struct.latencySample, ptr %132, i32 0, i32 1
  %134 = load i32, ptr %133, align 4, !tbaa !51
  %135 = uitofp i32 %134 to double
  %136 = getelementptr inbounds [64 x i8], ptr %12, i64 0, i64 0
  call void @sparklineSequenceAddSample(ptr noundef %127, double noundef %135, ptr noundef %136)
  store i32 0, ptr %13, align 4
  br label %137

137:                                              ; preds = %126, %34
  call void @llvm.lifetime.end.p0(i64 64, ptr %12) #10
  call void @llvm.lifetime.end.p0(i64 4, ptr %11) #10
  call void @llvm.lifetime.end.p0(i64 4, ptr %10) #10
  %138 = load i32, ptr %13, align 4
  switch i32 %138, label %172 [
    i32 0, label %139
    i32 4, label %140
  ]

139:                                              ; preds = %137
  br label %140

140:                                              ; preds = %139, %137
  %141 = load i32, ptr %5, align 4, !tbaa !48
  %142 = add nsw i32 %141, 1
  store i32 %142, ptr %5, align 4, !tbaa !48
  br label %16, !llvm.loop !125

143:                                              ; preds = %16
  %144 = load ptr, ptr %7, align 8, !tbaa !40
  %145 = load ptr, ptr %3, align 8, !tbaa !40
  %146 = load i32, ptr %9, align 4, !tbaa !48
  %147 = zext i32 %146 to i64
  %148 = load i32, ptr %8, align 4, !tbaa !48
  %149 = zext i32 %148 to i64
  %150 = load ptr, ptr %4, align 8, !tbaa !42
  %151 = getelementptr inbounds nuw %struct.latencyTimeSeries, ptr %150, i32 0, i32 1
  %152 = load i32, ptr %151, align 4, !tbaa !47
  %153 = zext i32 %152 to i64
  %154 = call ptr (ptr, ptr, ...) @sdscatprintf(ptr noundef %144, ptr noundef @.str.49, ptr noundef %145, i64 noundef %147, i64 noundef %149, i64 noundef %153)
  store ptr %154, ptr %7, align 8, !tbaa !40
  store i32 0, ptr %5, align 4, !tbaa !48
  br label %155

155:                                              ; preds = %161, %143
  %156 = load i32, ptr %5, align 4, !tbaa !48
  %157 = icmp slt i32 %156, 80
  br i1 %157, label %158, label %164

158:                                              ; preds = %155
  %159 = load ptr, ptr %7, align 8, !tbaa !40
  %160 = call ptr @sdscatlen(ptr noundef %159, ptr noundef @.str.50, i64 noundef 1)
  store ptr %160, ptr %7, align 8, !tbaa !40
  br label %161

161:                                              ; preds = %158
  %162 = load i32, ptr %5, align 4, !tbaa !48
  %163 = add nsw i32 %162, 1
  store i32 %163, ptr %5, align 4, !tbaa !48
  br label %155, !llvm.loop !126

164:                                              ; preds = %155
  %165 = load ptr, ptr %7, align 8, !tbaa !40
  %166 = call ptr @sdscatlen(ptr noundef %165, ptr noundef @.str.23, i64 noundef 1)
  store ptr %166, ptr %7, align 8, !tbaa !40
  %167 = load ptr, ptr %7, align 8, !tbaa !40
  %168 = load ptr, ptr %6, align 8, !tbaa !120
  %169 = call ptr @sparklineRender(ptr noundef %167, ptr noundef %168, i32 noundef 80, i32 noundef 4, i32 noundef 1)
  store ptr %169, ptr %7, align 8, !tbaa !40
  %170 = load ptr, ptr %6, align 8, !tbaa !120
  call void @freeSparklineSequence(ptr noundef %170)
  %171 = load ptr, ptr %7, align 8, !tbaa !40
  store i32 1, ptr %13, align 4
  call void @llvm.lifetime.end.p0(i64 4, ptr %9) #10
  call void @llvm.lifetime.end.p0(i64 4, ptr %8) #10
  call void @llvm.lifetime.end.p0(i64 8, ptr %7) #10
  call void @llvm.lifetime.end.p0(i64 8, ptr %6) #10
  call void @llvm.lifetime.end.p0(i64 4, ptr %5) #10
  ret ptr %171

172:                                              ; preds = %137
  unreachable
}