; Function Attrs: nounwind uwtable
define dso_local ptr @latencyCommandGenSparkeline(ptr noundef %0, ptr noundef readonly captures(none) %1) local_unnamed_addr #2 {
  %3 = alloca [64 x i8], align 16
  %4 = tail call ptr @createSparklineSequence() #14
  %5 = tail call ptr @sdsempty() #14
  %6 = getelementptr inbounds nuw i8, ptr %1, i64 8
  br label %7

7:                                                ; preds = %2, %46
  %.056 = phi i32 [ 0, %2 ], [ %47, %46 ]
  %.04455 = phi i32 [ 0, %2 ], [ %.145, %46 ]
  %.04654 = phi i32 [ 0, %2 ], [ %.147, %46 ]
  %8 = load i32, ptr %1, align 4, !tbaa !40
  %9 = add nsw i32 %8, %.056
  %10 = srem i32 %9, 160
  call void @llvm.lifetime.start.p0(i64 64, ptr nonnull %3) #14
  %11 = sext i32 %10 to i64
  %12 = getelementptr inbounds [160 x %struct.latencySample], ptr %6, i64 0, i64 %11
  %13 = load i32, ptr %12, align 4, !tbaa !41
  %14 = icmp eq i32 %13, 0
  br i1 %14, label %46, label %15

15:                                               ; preds = %7
  %16 = load i32, ptr %4, align 8, !tbaa !101
  %17 = icmp eq i32 %16, 0
  %18 = getelementptr inbounds nuw i8, ptr %12, i64 4
  %19 = load i32, ptr %18, align 4, !tbaa !43
  br i1 %17, label %21, label %20

20:                                               ; preds = %15
  %spec.select = call i32 @llvm.umax.i32(i32 %19, i32 %.04455)
  %spec.select53 = call i32 @llvm.umin.i32(i32 %19, i32 %.04654)
  br label %21

21:                                               ; preds = %15, %20
  %.248 = phi i32 [ %spec.select53, %20 ], [ %19, %15 ]
  %.2 = phi i32 [ %spec.select, %20 ], [ %19, %15 ]
  %22 = call i64 @time(ptr noundef null) #14
  %23 = load i32, ptr %12, align 4, !tbaa !41
  %24 = trunc i64 %22 to i32
  %25 = sub i32 %24, %23
  %26 = icmp slt i32 %25, 60
  br i1 %26, label %27, label %29

27:                                               ; preds = %21
  %28 = call i32 (ptr, i64, ptr, ...) @snprintf(ptr noundef nonnull dereferenceable(1) %3, i64 noundef 64, ptr noundef nonnull @.str.45, i32 noundef %25) #14
  br label %42

29:                                               ; preds = %21
  %30 = icmp samesign ult i32 %25, 3600
  br i1 %30, label %31, label %34

31:                                               ; preds = %29
  %.lhs.trunc = trunc nuw i32 %25 to i16
  %32 = udiv i16 %.lhs.trunc, 60
  %.zext = zext nneg i16 %32 to i32
  %33 = call i32 (ptr, i64, ptr, ...) @snprintf(ptr noundef nonnull dereferenceable(1) %3, i64 noundef 64, ptr noundef nonnull @.str.46, i32 noundef %.zext) #14
  br label %42

34:                                               ; preds = %29
  %35 = icmp samesign ult i32 %25, 86400
  br i1 %35, label %36, label %39

36:                                               ; preds = %34
  %37 = udiv i32 %25, 3600
  %38 = call i32 (ptr, i64, ptr, ...) @snprintf(ptr noundef nonnull dereferenceable(1) %3, i64 noundef 64, ptr noundef nonnull @.str.47, i32 noundef %37) #14
  br label %42

39:                                               ; preds = %34
  %40 = udiv i32 %25, 86400
  %41 = call i32 (ptr, i64, ptr, ...) @snprintf(ptr noundef nonnull dereferenceable(1) %3, i64 noundef 64, ptr noundef nonnull @.str.48, i32 noundef %40) #14
  br label %42

42:                                               ; preds = %31, %39, %36, %27
  %43 = getelementptr inbounds nuw i8, ptr %12, i64 4
  %44 = load i32, ptr %43, align 4, !tbaa !43
  %45 = uitofp i32 %44 to double
  call void @sparklineSequenceAddSample(ptr noundef nonnull %4, double noundef %45, ptr noundef nonnull %3) #14
  br label %46

46:                                               ; preds = %7, %42
  %.147 = phi i32 [ %.248, %42 ], [ %.04654, %7 ]
  %.145 = phi i32 [ %.2, %42 ], [ %.04455, %7 ]
  call void @llvm.lifetime.end.p0(i64 64, ptr nonnull %3) #14
  %47 = add nuw nsw i32 %.056, 1
  %exitcond.not = icmp eq i32 %47, 160
  br i1 %exitcond.not, label %48, label %7, !llvm.loop !104

48:                                               ; preds = %46
  %49 = zext i32 %.145 to i64
  %50 = zext i32 %.147 to i64
  %51 = getelementptr inbounds nuw i8, ptr %1, i64 4
  %52 = load i32, ptr %51, align 4, !tbaa !38
  %53 = zext i32 %52 to i64
  %54 = call ptr (ptr, ptr, ...) @sdscatprintf(ptr noundef %5, ptr noundef nonnull @.str.49, ptr noundef %0, i64 noundef %49, i64 noundef %50, i64 noundef %53) #14
  br label %55

55:                                               ; preds = %48, %55
  %.158 = phi i32 [ 0, %48 ], [ %57, %55 ]
  %.04357 = phi ptr [ %54, %48 ], [ %56, %55 ]
  %56 = call ptr @sdscatlen(ptr noundef %.04357, ptr noundef nonnull @.str.50, i64 noundef 1) #14
  %57 = add nuw nsw i32 %.158, 1
  %exitcond59.not = icmp eq i32 %57, 80
  br i1 %exitcond59.not, label %58, label %55, !llvm.loop !105

58:                                               ; preds = %55
  %59 = call ptr @sdscatlen(ptr noundef %56, ptr noundef nonnull @.str.23, i64 noundef 1) #14
  %60 = call ptr @sparklineRender(ptr noundef %59, ptr noundef %4, i32 noundef 80, i32 noundef 4, i32 noundef 1) #14
  call void @freeSparklineSequence(ptr noundef %4) #14
  ret ptr %60
}